; Function Attrs: nounwind uwtable
define dso_local ptr @get_sortgrouplist_exprs(ptr noundef readonly captures(address_is_null) %0, ptr noundef readonly captures(address_is_null) %1) local_unnamed_addr #0 {
  %.not = icmp eq ptr %0, null
  br i1 %.not, label %._crit_edge, label %.lr.ph

.lr.ph:                                           ; preds = %2
  %3 = getelementptr inbounds nuw i8, ptr %0, i64 4
  %4 = getelementptr inbounds nuw i8, ptr %0, i64 16
  %.not.i.i.i = icmp eq ptr %1, null
  %5 = getelementptr inbounds nuw i8, ptr %1, i64 4
  %6 = getelementptr inbounds nuw i8, ptr %1, i64 16
  %7 = load i32, ptr %3, align 4
  %8 = icmp sgt i32 %7, 0
  br i1 %.not.i.i.i, label %.lr.ph.split.us, label %.lr.ph.split.split

.lr.ph.split.us:                                  ; preds = %.lr.ph
  br i1 %8, label %._crit_edge.i.i.i, label %._crit_edge

.lr.ph.split.split:                               ; preds = %.lr.ph
  br i1 %8, label %.lr.ph.i.i.i, label %._crit_edge

._crit_edge:                                      ; preds = %get_sortgroupclause_expr.exit, %.lr.ph.split.us, %.lr.ph.split.split, %2
  %.0.lcssa = phi ptr [ null, %2 ], [ null, %.lr.ph.split.us ], [ null, %.lr.ph.split.split ], [ %27, %get_sortgroupclause_expr.exit ]
  ret ptr %.0.lcssa

.lr.ph.i.i.i:                                     ; preds = %.lr.ph.split.split, %get_sortgroupclause_expr.exit
  %indvars.iv = phi i64 [ %indvars.iv.next, %get_sortgroupclause_expr.exit ], [ 0, %.lr.ph.split.split ]
  %.02129 = phi ptr [ %27, %get_sortgroupclause_expr.exit ], [ null, %.lr.ph.split.split ]
  %9 = load ptr, ptr %4, align 8
  %10 = getelementptr inbounds nuw %union.ListCell, ptr %9, i64 %indvars.iv
  %11 = load ptr, ptr %10, align 8
  %12 = getelementptr inbounds nuw i8, ptr %11, i64 4
  %13 = load i32, ptr %12, align 4
  %14 = load i32, ptr %5, align 4
  %15 = icmp sgt i32 %14, 0
  br i1 %15, label %.lr.ph27.i.i.i, label %._crit_edge.i.i.i

.lr.ph27.i.i.i:                                   ; preds = %.lr.ph.i.i.i
  %16 = load ptr, ptr %6, align 8
  %wide.trip.count.i.i.i = zext nneg i32 %14 to i64
  br label %18

17:                                               ; preds = %18
  %indvars.iv.next.i.i.i = add nuw nsw i64 %indvars.iv.i.i.i, 1
  %exitcond.not.i.i.i = icmp eq i64 %indvars.iv.next.i.i.i, %wide.trip.count.i.i.i
  br i1 %exitcond.not.i.i.i, label %._crit_edge.i.i.i, label %18

18:                                               ; preds = %17, %.lr.ph27.i.i.i
  %indvars.iv.i.i.i = phi i64 [ 0, %.lr.ph27.i.i.i ], [ %indvars.iv.next.i.i.i, %17 ]
  %19 = getelementptr inbounds nuw %union.ListCell, ptr %16, i64 %indvars.iv.i.i.i
  %20 = load ptr, ptr %19, align 8
  %21 = getelementptr inbounds nuw i8, ptr %20, i64 32
  %22 = load i32, ptr %21, align 8
  %.not17.i.i.i = icmp eq i32 %22, %13
  br i1 %.not17.i.i.i, label %get_sortgroupclause_expr.exit, label %17

._crit_edge.i.i.i:                                ; preds = %.lr.ph.i.i.i, %17, %.lr.ph.split.us
  %23 = tail call zeroext i1 @errstart_cold(i32 noundef 21, ptr noundef null) #11
  tail call void @llvm.assume(i1 %23)
  %24 = tail call i32 (ptr, ...) @errmsg_internal(ptr noundef nonnull @.str) #10
  tail call void @errfinish(ptr noundef nonnull @.str.1, i32 noundef 357, ptr noundef nonnull @__func__.get_sortgroupref_tle) #10
  unreachable

get_sortgroupclause_expr.exit:                    ; preds = %18
  %25 = getelementptr inbounds nuw i8, ptr %20, i64 8
  %26 = load ptr, ptr %25, align 8
  %27 = tail call ptr @lappend(ptr noundef %.02129, ptr noundef %26) #10
  %indvars.iv.next = add nuw nsw i64 %indvars.iv, 1
  %28 = load i32, ptr %3, align 4
  %29 = sext i32 %28 to i64
  %30 = icmp slt i64 %indvars.iv.next, %29
  br i1 %30, label %.lr.ph.i.i.i, label %._crit_edge
}